; Function Attrs: nounwind uwtable
define internal fastcc noundef i32 @dissect_IandM4_block(ptr noundef %0, i32 noundef returned %1, ptr noundef %2, ptr noundef %3, ptr noundef %4, i8 noundef zeroext %5, i8 noundef zeroext %6) unnamed_addr #0 {
  %8 = icmp ne i8 %5, 1
  %9 = icmp ne i8 %6, 0
  %or.cond = or i1 %8, %9
  br i1 %or.cond, label %10, label %14

10:                                               ; preds = %7
  %11 = zext i8 %6 to i32
  %12 = zext i8 %5 to i32
  %13 = tail call ptr (ptr, ptr, ptr, ptr, ...) @expert_add_info_format(ptr noundef %2, ptr noundef %4, ptr noundef nonnull @ei_pn_io_block_version, ptr noundef nonnull @.str.1317, i32 noundef %12, i32 noundef %11) #11
  br label %16

14:                                               ; preds = %7
  %15 = tail call i32 @dissect_pn_user_data(ptr noundef %0, i32 noundef %1, ptr noundef %2, ptr noundef %3, i32 noundef 54, ptr noundef nonnull @.str.1359) #11
  br label %16

16:                                               ; preds = %14, %10
  ret i32 %1
}